target datalayout = "e-m:e-p270:32:32-p271:32:32-p272:64:64-i64:64-i128:128-f80:128-n8:16:32:64-S128"
target triple = "x86_64-pc-linux-gnu"

%struct._zend_executor_globals = type { %struct._zval_struct, %struct._zval_struct, [32 x ptr], ptr, ptr, %struct._zend_array, %struct._zend_array, ptr, i32, i8, %struct._zval_struct, i32, ptr, ptr, ptr, ptr, ptr, ptr, i64, ptr, ptr, i32, ptr, i32, i64, i32, i32, i32, i8, i8, %struct.zend_atomic_bool_s, %struct.zend_atomic_bool_s, ptr, i64, ptr, ptr, %struct._zend_array, %struct._zend_array, i32, i8, %struct._zval_struct, %struct._zval_struct, %struct._zend_stack, %struct._zend_stack, %struct._zend_stack, ptr, i32, i32, i64, ptr, ptr, ptr, %struct._zend_objects_store, %struct._zend_lazy_objects_store, ptr, ptr, ptr, [3 x %struct._zend_op], ptr, i8, i8, i64, i32, i32, ptr, [16 x %struct._HashTableIterator], ptr, %union._zend_function, %struct._zend_op, %struct._zend_array, i64, %struct.zend_get_gc_buffer, ptr, ptr, ptr, i64, i8, i32, ptr, ptr, i64, %struct._zend_call_stack, i64, i64, %struct._zend_strtod_state, [6 x ptr] }
%struct.zend_atomic_bool_s = type { i8 }
%struct._zval_struct = type { %union._zend_value, %union.anon, %union.anon.2 }
%union._zend_value = type { i64 }
%union.anon = type { i32 }
%union.anon.2 = type { i32 }
%struct._zend_stack = type { i32, i32, i32, ptr }
%struct._zend_objects_store = type { ptr, i32, i32, i32 }
%struct._zend_lazy_objects_store = type { %struct._zend_array }
%struct._HashTableIterator = type { ptr, i32, i32 }
%union._zend_function = type { %struct._zend_op_array }
%struct._zend_op_array = type { i8, [3 x i8], i32, ptr, ptr, ptr, i32, i32, ptr, ptr, ptr, ptr, i32, ptr, i32, i32, i32, ptr, ptr, ptr, ptr, ptr, i32, i32, ptr, ptr, ptr, i32, i32, i32, i32, ptr, ptr, [6 x ptr] }
%struct._zend_op = type { ptr, %union._znode_op, %union._znode_op, %union._znode_op, i32, i32, i8, i8, i8, i8 }
%union._znode_op = type { i32 }
%struct._zend_array = type { %struct._zend_refcounted_h, %union.anon.4, i32, %union.anon.6, i32, i32, i32, i32, i64, ptr }
%struct._zend_refcounted_h = type { i32, %union.anon.3 }
%union.anon.3 = type { i32 }
%union.anon.4 = type { i32 }
%union.anon.6 = type { ptr }
%struct.zend_get_gc_buffer = type { ptr, ptr, ptr }
%struct._zend_call_stack = type { ptr, i64 }
%struct._zend_strtod_state = type { [8 x ptr], ptr, ptr }
%struct._zend_string = type { %struct._zend_refcounted_h, i64, i64, [1 x i8] }

@executor_globals = external global %struct._zend_executor_globals, align 8
@.str.50 = private unnamed_addr constant [36 x i8] c"must be empty or a single character\00", align 1
@.str.51 = private unnamed_addr constant [72 x i8] c"the $escape parameter must be provided as its default value will change\00", align 1

; Function Attrs: nounwind uwtable
define dso_local i32 @php_csv_handle_escape_argument(ptr noundef %0, i32 noundef %1) #0 {
  %3 = alloca i32, align 4
  %4 = alloca ptr, align 8
  %5 = alloca i32, align 4
  store ptr %0, ptr %4, align 8, !tbaa !80
  store i32 %1, ptr %5, align 4, !tbaa !4
  %6 = load ptr, ptr %4, align 8, !tbaa !80
  %7 = icmp ne ptr %6, null
  br i1 %7, label %8, label %27

8:                                                ; preds = %2
  %9 = load ptr, ptr %4, align 8, !tbaa !80
  %10 = getelementptr inbounds nuw %struct._zend_string, ptr %9, i32 0, i32 2
  %11 = load i64, ptr %10, align 8, !tbaa !81
  %12 = icmp ugt i64 %11, 1
  br i1 %12, label %13, label %15

13:                                               ; preds = %8
  %14 = load i32, ptr %5, align 4, !tbaa !4
  call void (i32, ptr, ...) @zend_argument_value_error(i32 noundef %14, ptr noundef @.str.50)
  store i32 -500, ptr %3, align 4
  br label %38

15:                                               ; preds = %8
  %16 = load ptr, ptr %4, align 8, !tbaa !80
  %17 = getelementptr inbounds nuw %struct._zend_string, ptr %16, i32 0, i32 2
  %18 = load i64, ptr %17, align 8, !tbaa !81
  %19 = icmp ult i64 %18, 1
  br i1 %19, label %20, label %21

20:                                               ; preds = %15
  store i32 -1, ptr %3, align 4
  br label %38

21:                                               ; preds = %15
  %22 = load ptr, ptr %4, align 8, !tbaa !80
  %23 = getelementptr inbounds nuw %struct._zend_string, ptr %22, i32 0, i32 3
  %24 = getelementptr inbounds [1 x i8], ptr %23, i64 0, i64 0
  %25 = load i8, ptr %24, align 8, !tbaa !17
  %26 = zext i8 %25 to i32
  store i32 %26, ptr %3, align 4
  br label %38

27:                                               ; preds = %2
  call void (ptr, i32, ptr, ...) @php_error_docref(ptr noundef null, i32 noundef 8192, ptr noundef @.str.51)
  %28 = load ptr, ptr getelementptr inbounds nuw (%struct._zend_executor_globals, ptr @executor_globals, i32 0, i32 54), align 8, !tbaa !32
  %29 = icmp ne ptr %28, null
  %30 = xor i1 %29, true
  %31 = xor i1 %30, true
  %32 = zext i1 %31 to i32
  %33 = sext i32 %32 to i64
  %34 = call i64 @llvm.expect.i64(i64 %33, i64 0)
  %35 = icmp ne i64 %34, 0
  br i1 %35, label %36, label %37

36:                                               ; preds = %27
  store i32 -500, ptr %3, align 4
  br label %38

37:                                               ; preds = %27
  store i32 92, ptr %3, align 4
  br label %38

38:                                               ; preds = %37, %36, %21, %20, %13
  %39 = load i32, ptr %3, align 4
  ret i32 %39
}