; Function Attrs: nounwind uwtable
define dso_local range(i32 -500, 256) i32 @php_csv_handle_escape_argument(ptr noundef readonly captures(address_is_null) %0, i32 noundef %1) local_unnamed_addr #1 {
  %.not = icmp eq ptr %0, null
  br i1 %.not, label %14, label %3

3:                                                ; preds = %2
  %4 = getelementptr inbounds nuw i8, ptr %0, i64 16
  %5 = load i64, ptr %4, align 8, !tbaa !60
  %6 = icmp ugt i64 %5, 1
  br i1 %6, label %7, label %8

7:                                                ; preds = %3
  tail call void (i32, ptr, ...) @zend_argument_value_error(i32 noundef %1, ptr noundef nonnull @.str.50) #18
  br label %16

8:                                                ; preds = %3
  %9 = icmp eq i64 %5, 0
  br i1 %9, label %16, label %10

10:                                               ; preds = %8
  %11 = getelementptr inbounds nuw i8, ptr %0, i64 24
  %12 = load i8, ptr %11, align 8, !tbaa !21
  %13 = zext i8 %12 to i32
  br label %16

14:                                               ; preds = %2
  tail call void (ptr, i32, ptr, ...) @php_error_docref(ptr noundef null, i32 noundef 8192, ptr noundef nonnull @.str.51) #18
  %15 = load ptr, ptr getelementptr inbounds nuw (i8, ptr @executor_globals, i64 960), align 8, !tbaa !23
  %.not7 = icmp eq ptr %15, null
  %. = select i1 %.not7, i32 92, i32 -500, !prof !52
  br label %16

16:                                               ; preds = %14, %8, %10, %7
  %.0 = phi i32 [ -500, %7 ], [ %13, %10 ], [ -1, %8 ], [ %., %14 ]
  ret i32 %.0
}